; ModuleID = '21/746.c'
source_filename = "21/746.c"
target datalayout = "e-m:e-p270:32:32-p271:32:32-p272:64:64-i64:64-f80:128-n8:16:32:64-S128"
target triple = "x86_64-pc-linux-gnu"

@.str = private unnamed_addr constant [3 x i8] c"%d\00", align 1
@.str.1 = private unnamed_addr constant [2 x i8] c",\00", align 1

; Function Attrs: noinline nounwind uwtable
define dso_local i32 @main() #0 {
  %1 = alloca i32, align 4
  %2 = alloca i32, align 4
  %3 = alloca i32, align 4
  %4 = alloca i32, align 4
  %5 = alloca i32, align 4
  %6 = alloca [500 x i32], align 16
  %7 = alloca i32, align 4
  %8 = alloca i32, align 4
  %9 = alloca double, align 8
  %10 = alloca [500 x double], align 16
  %11 = alloca double, align 8
  store i32 0, i32* %1, align 4
  store i32 0, i32* %7, align 4
  store double 0.000000e+00, double* %9, align 8
  %12 = call i32 (i8*, ...) @__isoc99_scanf(i8* getelementptr inbounds ([3 x i8], [3 x i8]* @.str, i64 0, i64 0), i32* %2)
  store i32 0, i32* %3, align 4
  br label %13

13:                                               ; preds = %29, %0
  %14 = load i32, i32* %3, align 4
  %15 = load i32, i32* %2, align 4
  %16 = icmp slt i32 %14, %15
  br i1 %16, label %17, label %32

17:                                               ; preds = %13
  %18 = load i32, i32* %3, align 4
  %19 = sext i32 %18 to i64
  %20 = getelementptr inbounds [500 x i32], [500 x i32]* %6, i64 0, i64 %19
  %21 = call i32 (i8*, ...) @__isoc99_scanf(i8* getelementptr inbounds ([3 x i8], [3 x i8]* @.str, i64 0, i64 0), i32* %20)
  %22 = load i32, i32* %3, align 4
  %23 = sext i32 %22 to i64
  %24 = getelementptr inbounds [500 x i32], [500 x i32]* %6, i64 0, i64 %23
  %25 = load i32, i32* %24, align 4
  %26 = sitofp i32 %25 to double
  %27 = load double, double* %9, align 8
  %28 = fadd double %27, %26
  store double %28, double* %9, align 8
  br label %29

29:                                               ; preds = %17
  %30 = load i32, i32* %3, align 4
  %31 = add nsw i32 %30, 1
  store i32 %31, i32* %3, align 4
  br label %13

32:                                               ; preds = %13
  %33 = load i32, i32* %2, align 4
  %34 = sitofp i32 %33 to double
  %35 = load double, double* %9, align 8
  %36 = fdiv double %35, %34
  store double %36, double* %9, align 8
  store i32 1, i32* %3, align 4
  br label %37

37:                                               ; preds = %82, %32
  %38 = load i32, i32* %3, align 4
  %39 = load i32, i32* %2, align 4
  %40 = icmp slt i32 %38, %39
  br i1 %40, label %41, label %85

41:                                               ; preds = %37
  store i32 0, i32* %4, align 4
  br label %42

42:                                               ; preds = %78, %41
  %43 = load i32, i32* %4, align 4
  %44 = load i32, i32* %2, align 4
  %45 = load i32, i32* %3, align 4
  %46 = sub nsw i32 %44, %45
  %47 = icmp slt i32 %43, %46
  br i1 %47, label %48, label %81

48:                                               ; preds = %42
  %49 = load i32, i32* %4, align 4
  %50 = sext i32 %49 to i64
  %51 = getelementptr inbounds [500 x i32], [500 x i32]* %6, i64 0, i64 %50
  %52 = load i32, i32* %51, align 4
  %53 = load i32, i32* %4, align 4
  %54 = add nsw i32 %53, 1
  %55 = sext i32 %54 to i64
  %56 = getelementptr inbounds [500 x i32], [500 x i32]* %6, i64 0, i64 %55
  %57 = load i32, i32* %56, align 4
  %58 = icmp sgt i32 %52, %57
  br i1 %58, label %59, label %77

59:                                               ; preds = %48
  %60 = load i32, i32* %4, align 4
  %61 = sext i32 %60 to i64
  %62 = getelementptr inbounds [500 x i32], [500 x i32]* %6, i64 0, i64 %61
  %63 = load i32, i32* %62, align 4
  store i32 %63, i32* %5, align 4
  %64 = load i32, i32* %4, align 4
  %65 = add nsw i32 %64, 1
  %66 = sext i32 %65 to i64
  %67 = getelementptr inbounds [500 x i32], [500 x i32]* %6, i64 0, i64 %66
  %68 = load i32, i32* %67, align 4
  %69 = load i32, i32* %4, align 4
  %70 = sext i32 %69 to i64
  %71 = getelementptr inbounds [500 x i32], [500 x i32]* %6, i64 0, i64 %70
  store i32 %68, i32* %71, align 4
  %72 = load i32, i32* %5, align 4
  %73 = load i32, i32* %4, align 4
  %74 = add nsw i32 %73, 1
  %75 = sext i32 %74 to i64
  %76 = getelementptr inbounds [500 x i32], [500 x i32]* %6, i64 0, i64 %75
  store i32 %72, i32* %76, align 4
  br label %77

77:                                               ; preds = %59, %48
  br label %78

78:                                               ; preds = %77
  %79 = load i32, i32* %4, align 4
  %80 = add nsw i32 %79, 1
  store i32 %80, i32* %4, align 4
  br label %42

81:                                               ; preds = %42
  br label %82

82:                                               ; preds = %81
  %83 = load i32, i32* %3, align 4
  %84 = add nsw i32 %83, 1
  store i32 %84, i32* %3, align 4
  br label %37

85:                                               ; preds = %37
  store i32 0, i32* %3, align 4
  br label %86

86:                                               ; preds = %102, %85
  %87 = load i32, i32* %3, align 4
  %88 = load i32, i32* %2, align 4
  %89 = icmp slt i32 %87, %88
  br i1 %89, label %90, label %105

90:                                               ; preds = %86
  %91 = load i32, i32* %3, align 4
  %92 = sext i32 %91 to i64
  %93 = getelementptr inbounds [500 x i32], [500 x i32]* %6, i64 0, i64 %92
  %94 = load i32, i32* %93, align 4
  %95 = sitofp i32 %94 to double
  %96 = load double, double* %9, align 8
  %97 = fsub double %95, %96
  %98 = call double @llvm.fabs.f64(double %97)
  %99 = load i32, i32* %3, align 4
  %100 = sext i32 %99 to i64
  %101 = getelementptr inbounds [500 x double], [500 x double]* %10, i64 0, i64 %100
  store double %98, double* %101, align 8
  br label %102

102:                                              ; preds = %90
  %103 = load i32, i32* %3, align 4
  %104 = add nsw i32 %103, 1
  store i32 %104, i32* %3, align 4
  br label %86

105:                                              ; preds = %86
  %106 = getelementptr inbounds [500 x double], [500 x double]* %10, i64 0, i64 0
  %107 = load double, double* %106, align 16
  store double %107, double* %11, align 8
  store i32 0, i32* %8, align 4
  store i32 0, i32* %3, align 4
  br label %108

108:                                              ; preds = %126, %105
  %109 = load i32, i32* %3, align 4
  %110 = load i32, i32* %2, align 4
  %111 = icmp slt i32 %109, %110
  br i1 %111, label %112, label %129

112:                                              ; preds = %108
  %113 = load i32, i32* %3, align 4
  %114 = sext i32 %113 to i64
  %115 = getelementptr inbounds [500 x double], [500 x double]* %10, i64 0, i64 %114
  %116 = load double, double* %115, align 8
  %117 = load double, double* %11, align 8
  %118 = fcmp ogt double %116, %117
  br i1 %118, label %119, label %125

119:                                              ; preds = %112
  %120 = load i32, i32* %3, align 4
  %121 = sext i32 %120 to i64
  %122 = getelementptr inbounds [500 x double], [500 x double]* %10, i64 0, i64 %121
  %123 = load double, double* %122, align 8
  store double %123, double* %11, align 8
  %124 = load i32, i32* %3, align 4
  store i32 %124, i32* %8, align 4
  br label %125

125:                                              ; preds = %119, %112
  br label %126

126:                                              ; preds = %125
  %127 = load i32, i32* %3, align 4
  %128 = add nsw i32 %127, 1
  store i32 %128, i32* %3, align 4
  br label %108

129:                                              ; preds = %108
  store i32 0, i32* %3, align 4
  br label %130

130:                                              ; preds = %162, %129
  %131 = load i32, i32* %3, align 4
  %132 = load i32, i32* %2, align 4
  %133 = icmp slt i32 %131, %132
  br i1 %133, label %134, label %165

134:                                              ; preds = %130
  %135 = load double, double* %11, align 8
  %136 = load i32, i32* %3, align 4
  %137 = sext i32 %136 to i64
  %138 = getelementptr inbounds [500 x double], [500 x double]* %10, i64 0, i64 %137
  %139 = load double, double* %138, align 8
  %140 = fsub double %135, %139
  %141 = fcmp olt double %140, 1.000000e-09
  br i1 %141, label %142, label %161

142:                                              ; preds = %134
  %143 = load i32, i32* %7, align 4
  %144 = add nsw i32 %143, 1
  store i32 %144, i32* %7, align 4
  %145 = load i32, i32* %7, align 4
  %146 = icmp eq i32 %145, 1
  br i1 %146, label %147, label %153

147:                                              ; preds = %142
  %148 = load i32, i32* %3, align 4
  %149 = sext i32 %148 to i64
  %150 = getelementptr inbounds [500 x i32], [500 x i32]* %6, i64 0, i64 %149
  %151 = load i32, i32* %150, align 4
  %152 = call i32 (i8*, ...) @printf(i8* getelementptr inbounds ([3 x i8], [3 x i8]* @.str, i64 0, i64 0), i32 %151)
  br label %160

153:                                              ; preds = %142
  %154 = call i32 (i8*, ...) @printf(i8* getelementptr inbounds ([2 x i8], [2 x i8]* @.str.1, i64 0, i64 0))
  %155 = load i32, i32* %3, align 4
  %156 = sext i32 %155 to i64
  %157 = getelementptr inbounds [500 x i32], [500 x i32]* %6, i64 0, i64 %156
  %158 = load i32, i32* %157, align 4
  %159 = call i32 (i8*, ...) @printf(i8* getelementptr inbounds ([3 x i8], [3 x i8]* @.str, i64 0, i64 0), i32 %158)
  br label %160

160:                                              ; preds = %153, %147
  br label %161

161:                                              ; preds = %160, %134
  br label %162

162:                                              ; preds = %161
  %163 = load i32, i32* %3, align 4
  %164 = add nsw i32 %163, 1
  store i32 %164, i32* %3, align 4
  br label %130

165:                                              ; preds = %130
  ret i32 0
}

declare dso_local i32 @__isoc99_scanf(i8*, ...) #1

; Function Attrs: nounwind readnone speculatable willreturn
declare double @llvm.fabs.f64(double) #2

declare dso_local i32 @printf(i8*, ...) #1


!llvm.module.flags = !{!0}
!llvm.ident = !{!1}

!0 = !{i32 1, !"wchar_size", i32 4}
!1 = !{!"clang version 10.0.0-4ubuntu1 "}
